; Function Attrs: nounwind uwtable
define internal void @scr_load_anim_start(ptr nocapture noundef readonly %0) #0 {
  %2 = load ptr, ptr %0, align 8, !tbaa !73
  %3 = tail call ptr @lv_obj_get_display(ptr noundef %2) #13
  %4 = getelementptr inbounds nuw i8, ptr %3, i64 800
  %5 = load ptr, ptr %4, align 8, !tbaa !45
  %6 = getelementptr inbounds nuw i8, ptr %3, i64 816
  store ptr %5, ptr %6, align 8, !tbaa !71
  %7 = load ptr, ptr %0, align 8, !tbaa !73
  store ptr %7, ptr %4, align 8, !tbaa !45
  %8 = tail call i32 @lv_obj_send_event(ptr noundef %7, i32 noundef 46, ptr noundef null) #13
  ret void
}